target datalayout = "e-m:e-p270:32:32-p271:32:32-p272:64:64-i64:64-i128:128-f80:128-n8:16:32:64-S128"
target triple = "x86_64-pc-linux-gnu"

%struct.cmsysProcess_s = type { ptr, i32, [3 x i32], [3 x i32], i32, [1024 x i8], ptr, i32, double, ptr, i32, i32, i32, i32, i32, %struct.kwsysProcessTime_s, %struct.kwsysProcessTime_s, i32, i32, %struct.fd_set, i32, i32, i32, [1025 x i8], ptr, ptr, ptr, ptr, ptr, i32, i32, i32, [2 x i32], [2 x i32], [2 x i32], i32, ptr }
%struct.kwsysProcessTime_s = type { i64, i64 }
%struct.fd_set = type { [16 x i64] }

; Function Attrs: nounwind uwtable
define dso_local i32 @cmsysProcess_GetState(ptr noundef %0) #0 {
  %2 = alloca ptr, align 8
  store ptr %0, ptr %2, align 8, !tbaa !4
  %3 = load ptr, ptr %2, align 8, !tbaa !4
  %4 = icmp ne ptr %3, null
  br i1 %4, label %5, label %9

5:                                                ; preds = %1
  %6 = load ptr, ptr %2, align 8, !tbaa !4
  %7 = getelementptr inbounds nuw %struct.cmsysProcess_s, ptr %6, i32 0, i32 21
  %8 = load volatile i32, ptr %7, align 4, !tbaa !21
  br label %10

9:                                                ; preds = %1
  br label %10

10:                                               ; preds = %9, %5
  %11 = phi i32 [ %8, %5 ], [ 1, %9 ]
  ret i32 %11
}